; Function Attrs: nounwind uwtable
define nonnull ptr @l_Lake_getVerbosity___rarg___lambda__1___boxed(ptr noundef %0) #0 {
  %2 = getelementptr inbounds nuw i8, ptr %0, i64 19
  %3 = load i8, ptr %2, align 1, !tbaa !4
  %4 = ptrtoint ptr %0 to i64
  %5 = and i64 %4, 1
  %.not = icmp eq i64 %5, 0
  br i1 %.not, label %6, label %lean_dec.exit

6:                                                ; preds = %1
  %7 = load i32, ptr %0, align 4, !tbaa !7
  %8 = icmp sgt i32 %7, 1
  br i1 %8, label %9, label %11, !prof !10

9:                                                ; preds = %6
  %10 = add nsw i32 %7, -1
  store i32 %10, ptr %0, align 4, !tbaa !7
  br label %lean_dec.exit

11:                                               ; preds = %6
  %.not.i = icmp eq i32 %7, 0
  br i1 %.not.i, label %lean_dec.exit, label %12

12:                                               ; preds = %11
  tail call void @lean_dec_ref_cold(ptr noundef nonnull %0) #4
  br label %lean_dec.exit

lean_dec.exit:                                    ; preds = %12, %11, %9, %1
  %13 = zext i8 %3 to i64
  %14 = shl nuw nsw i64 %13, 1
  %15 = or disjoint i64 %14, 1
  %16 = inttoptr i64 %15 to ptr
  ret ptr %16
}